target datalayout = "e-m:e-p270:32:32-p271:32:32-p272:64:64-i64:64-i128:128-f80:128-n8:16:32:64-S128"
target triple = "x86_64-pc-linux-gnu"

%struct._zval_struct = type { %union._zend_value, %union.anon, %union.anon.2 }
%union._zend_value = type { i64 }
%union.anon = type { i32 }
%union.anon.2 = type { i32 }
%struct._zend_refcounted_h = type { i32, %union.anon.3 }
%union.anon.3 = type { i32 }
%struct.anon.0 = type { i8, i8, %union.anon.1 }
%union.anon.1 = type { i16 }
%struct._zend_refcounted = type { %struct._zend_refcounted_h }

; Function Attrs: alwaysinline nounwind uwtable
define internal zeroext i1 @zend_parse_arg_bool_ex(ptr noundef %0, ptr noundef %1, ptr noundef %2, i1 noundef zeroext %3, i32 noundef %4, i1 noundef zeroext %5) #5 {
  %7 = alloca i1, align 1
  %8 = alloca ptr, align 8
  %9 = alloca ptr, align 8
  %10 = alloca ptr, align 8
  %11 = alloca i8, align 1
  %12 = alloca i32, align 4
  %13 = alloca i8, align 1
  store ptr %0, ptr %8, align 8, !tbaa !67
  store ptr %1, ptr %9, align 8, !tbaa !81
  store ptr %2, ptr %10, align 8, !tbaa !81
  %14 = zext i1 %3 to i8
  store i8 %14, ptr %11, align 1, !tbaa !70
  store i32 %4, ptr %12, align 4, !tbaa !4
  %15 = zext i1 %5 to i8
  store i8 %15, ptr %13, align 1, !tbaa !70
  %16 = load i8, ptr %11, align 1, !tbaa !70, !range !71, !noundef !72
  %17 = trunc i8 %16 to i1
  br i1 %17, label %18, label %20

18:                                               ; preds = %6
  %19 = load ptr, ptr %10, align 8, !tbaa !81
  store i8 0, ptr %19, align 1, !tbaa !70
  br label %20

20:                                               ; preds = %18, %6
  %21 = load ptr, ptr %8, align 8, !tbaa !67
  %22 = call zeroext i8 @zval_get_type(ptr noundef %21)
  %23 = zext i8 %22 to i32
  %24 = icmp eq i32 %23, 3
  %25 = xor i1 %24, true
  %26 = xor i1 %25, true
  %27 = zext i1 %26 to i32
  %28 = sext i32 %27 to i64
  %29 = call i64 @llvm.expect.i64(i64 %28, i64 1)
  %30 = icmp ne i64 %29, 0
  br i1 %30, label %31, label %33

31:                                               ; preds = %20
  %32 = load ptr, ptr %9, align 8, !tbaa !81
  store i8 1, ptr %32, align 1, !tbaa !70
  br label %72

33:                                               ; preds = %20
  %34 = load ptr, ptr %8, align 8, !tbaa !67
  %35 = call zeroext i8 @zval_get_type(ptr noundef %34)
  %36 = zext i8 %35 to i32
  %37 = icmp eq i32 %36, 2
  %38 = xor i1 %37, true
  %39 = xor i1 %38, true
  %40 = zext i1 %39 to i32
  %41 = sext i32 %40 to i64
  %42 = call i64 @llvm.expect.i64(i64 %41, i64 1)
  %43 = icmp ne i64 %42, 0
  br i1 %43, label %44, label %46

44:                                               ; preds = %33
  %45 = load ptr, ptr %9, align 8, !tbaa !81
  store i8 0, ptr %45, align 1, !tbaa !70
  br label %71

46:                                               ; preds = %33
  %47 = load i8, ptr %11, align 1, !tbaa !70, !range !71, !noundef !72
  %48 = trunc i8 %47 to i1
  br i1 %48, label %49, label %57

49:                                               ; preds = %46
  %50 = load ptr, ptr %8, align 8, !tbaa !67
  %51 = call zeroext i8 @zval_get_type(ptr noundef %50)
  %52 = zext i8 %51 to i32
  %53 = icmp eq i32 %52, 1
  br i1 %53, label %54, label %57

54:                                               ; preds = %49
  %55 = load ptr, ptr %10, align 8, !tbaa !81
  store i8 1, ptr %55, align 1, !tbaa !70
  %56 = load ptr, ptr %9, align 8, !tbaa !81
  store i8 0, ptr %56, align 1, !tbaa !70
  br label %70

57:                                               ; preds = %49, %46
  %58 = load i8, ptr %13, align 1, !tbaa !70, !range !71, !noundef !72
  %59 = trunc i8 %58 to i1
  br i1 %59, label %60, label %65

60:                                               ; preds = %57
  %61 = load ptr, ptr %8, align 8, !tbaa !67
  %62 = load ptr, ptr %9, align 8, !tbaa !81
  %63 = load i32, ptr %12, align 4, !tbaa !4
  %64 = call zeroext i1 @zend_flf_parse_arg_bool_slow(ptr noundef %61, ptr noundef %62, i32 noundef %63)
  store i1 %64, ptr %7, align 1
  br label %73

65:                                               ; preds = %57
  %66 = load ptr, ptr %8, align 8, !tbaa !67
  %67 = load ptr, ptr %9, align 8, !tbaa !81
  %68 = load i32, ptr %12, align 4, !tbaa !4
  %69 = call zeroext i1 @zend_parse_arg_bool_slow(ptr noundef %66, ptr noundef %67, i32 noundef %68)
  store i1 %69, ptr %7, align 1
  br label %73

70:                                               ; preds = %54
  br label %71

71:                                               ; preds = %70, %44
  br label %72

72:                                               ; preds = %71, %31
  store i1 true, ptr %7, align 1
  br label %73

73:                                               ; preds = %72, %65, %60
  %74 = load i1, ptr %7, align 1
  ret i1 %74
}

; Function Attrs: alwaysinline nounwind uwtable
define internal zeroext i1 @zend_parse_arg_str_ex(ptr noundef %0, ptr noundef %1, i1 noundef zeroext %2, i32 noundef %3, i1 noundef zeroext %4) #5 {
  %6 = alloca i1, align 1
  %7 = alloca ptr, align 8
  %8 = alloca ptr, align 8
  %9 = alloca i8, align 1
  %10 = alloca i32, align 4
  %11 = alloca i8, align 1
  store ptr %0, ptr %7, align 8, !tbaa !67
  store ptr %1, ptr %8, align 8, !tbaa !77
  %12 = zext i1 %2 to i8
  store i8 %12, ptr %9, align 1, !tbaa !70
  store i32 %3, ptr %10, align 4, !tbaa !4
  %13 = zext i1 %4 to i8
  store i8 %13, ptr %11, align 1, !tbaa !70
  %14 = load ptr, ptr %7, align 8, !tbaa !67
  %15 = call zeroext i8 @zval_get_type(ptr noundef %14)
  %16 = zext i8 %15 to i32
  %17 = icmp eq i32 %16, 6
  %18 = xor i1 %17, true
  %19 = xor i1 %18, true
  %20 = zext i1 %19 to i32
  %21 = sext i32 %20 to i64
  %22 = call i64 @llvm.expect.i64(i64 %21, i64 1)
  %23 = icmp ne i64 %22, 0
  br i1 %23, label %24, label %29

24:                                               ; preds = %5
  %25 = load ptr, ptr %7, align 8, !tbaa !67
  %26 = getelementptr inbounds nuw %struct._zval_struct, ptr %25, i32 0, i32 0
  %27 = load ptr, ptr %26, align 8, !tbaa !31
  %28 = load ptr, ptr %8, align 8, !tbaa !77
  store ptr %27, ptr %28, align 8, !tbaa !32
  br label %53

29:                                               ; preds = %5
  %30 = load i8, ptr %9, align 1, !tbaa !70, !range !71, !noundef !72
  %31 = trunc i8 %30 to i1
  br i1 %31, label %32, label %39

32:                                               ; preds = %29
  %33 = load ptr, ptr %7, align 8, !tbaa !67
  %34 = call zeroext i8 @zval_get_type(ptr noundef %33)
  %35 = zext i8 %34 to i32
  %36 = icmp eq i32 %35, 1
  br i1 %36, label %37, label %39

37:                                               ; preds = %32
  %38 = load ptr, ptr %8, align 8, !tbaa !77
  store ptr null, ptr %38, align 8, !tbaa !32
  br label %52

39:                                               ; preds = %32, %29
  %40 = load i8, ptr %11, align 1, !tbaa !70, !range !71, !noundef !72
  %41 = trunc i8 %40 to i1
  br i1 %41, label %42, label %47

42:                                               ; preds = %39
  %43 = load ptr, ptr %7, align 8, !tbaa !67
  %44 = load ptr, ptr %8, align 8, !tbaa !77
  %45 = load i32, ptr %10, align 4, !tbaa !4
  %46 = call zeroext i1 @zend_flf_parse_arg_str_slow(ptr noundef %43, ptr noundef %44, i32 noundef %45)
  store i1 %46, ptr %6, align 1
  br label %54

47:                                               ; preds = %39
  %48 = load ptr, ptr %7, align 8, !tbaa !67
  %49 = load ptr, ptr %8, align 8, !tbaa !77
  %50 = load i32, ptr %10, align 4, !tbaa !4
  %51 = call zeroext i1 @zend_parse_arg_str_slow(ptr noundef %48, ptr noundef %49, i32 noundef %50)
  store i1 %51, ptr %6, align 1
  br label %54

52:                                               ; preds = %37
  br label %53

53:                                               ; preds = %52, %24
  store i1 true, ptr %6, align 1
  br label %54

54:                                               ; preds = %53, %47, %42
  %55 = load i1, ptr %6, align 1
  ret i1 %55
}

; Function Attrs: alwaysinline nounwind uwtable
define internal i32 @zend_gc_addref(ptr noundef %0) #5 {
  %2 = alloca ptr, align 8
  store ptr %0, ptr %2, align 8, !tbaa !128
  br label %3

3:                                                ; preds = %1
  br label %4

4:                                                ; preds = %3
  %5 = load ptr, ptr %2, align 8, !tbaa !128
  %6 = getelementptr inbounds nuw %struct._zend_refcounted_h, ptr %5, i32 0, i32 0
  %7 = load i32, ptr %6, align 4, !tbaa !130
  %8 = add i32 %7, 1
  store i32 %8, ptr %6, align 4, !tbaa !130
  ret i32 %8
}

; Function Attrs: alwaysinline nounwind uwtable
define internal zeroext i8 @zval_get_type(ptr noundef %0) #5 {
  %2 = alloca ptr, align 8
  store ptr %0, ptr %2, align 8, !tbaa !67
  %3 = load ptr, ptr %2, align 8, !tbaa !67
  %4 = getelementptr inbounds nuw %struct._zval_struct, ptr %3, i32 0, i32 1
  %5 = getelementptr inbounds nuw %struct.anon.0, ptr %4, i32 0, i32 0
  %6 = load i8, ptr %5, align 8, !tbaa !31
  ret i8 %6
}

; Function Attrs: nounwind uwtable
define hidden void @zflf_class_exists_2(ptr noundef %0, ptr noundef %1, ptr noundef %2) #0 {
  %4 = alloca ptr, align 8
  %5 = alloca ptr, align 8
  %6 = alloca ptr, align 8
  %7 = alloca %struct._zval_struct, align 8
  %8 = alloca ptr, align 8
  %9 = alloca i8, align 1
  %10 = alloca ptr, align 8
  %11 = alloca ptr, align 8
  %12 = alloca ptr, align 8
  %13 = alloca i32, align 4
  store ptr %0, ptr %4, align 8, !tbaa !67
  store ptr %1, ptr %5, align 8, !tbaa !67
  store ptr %2, ptr %6, align 8, !tbaa !67
  call void @llvm.lifetime.start.p0(i64 16, ptr %7) #14
  call void @llvm.lifetime.start.p0(i64 8, ptr %8) #14
  call void @llvm.lifetime.start.p0(i64 1, ptr %9) #14
  %14 = load ptr, ptr %5, align 8, !tbaa !67
  %15 = call zeroext i8 @zval_get_type(ptr noundef %14)
  %16 = zext i8 %15 to i32
  %17 = icmp eq i32 %16, 6
  br i1 %17, label %18, label %22

18:                                               ; preds = %3
  %19 = load ptr, ptr %5, align 8, !tbaa !67
  %20 = getelementptr inbounds nuw %struct._zval_struct, ptr %19, i32 0, i32 0
  %21 = load ptr, ptr %20, align 8, !tbaa !31
  store ptr %21, ptr %8, align 8, !tbaa !32
  br label %55

22:                                               ; preds = %3
  br label %23

23:                                               ; preds = %22
  call void @llvm.lifetime.start.p0(i64 8, ptr %10) #14
  store ptr %7, ptr %10, align 8, !tbaa !67
  call void @llvm.lifetime.start.p0(i64 8, ptr %11) #14
  %24 = load ptr, ptr %5, align 8, !tbaa !67
  store ptr %24, ptr %11, align 8, !tbaa !67
  call void @llvm.lifetime.start.p0(i64 8, ptr %12) #14
  %25 = load ptr, ptr %11, align 8, !tbaa !67
  %26 = getelementptr inbounds nuw %struct._zval_struct, ptr %25, i32 0, i32 0
  %27 = load ptr, ptr %26, align 8, !tbaa !31
  store ptr %27, ptr %12, align 8, !tbaa !101
  call void @llvm.lifetime.start.p0(i64 4, ptr %13) #14
  %28 = load ptr, ptr %11, align 8, !tbaa !67
  %29 = getelementptr inbounds nuw %struct._zval_struct, ptr %28, i32 0, i32 1
  %30 = load i32, ptr %29, align 8, !tbaa !31
  store i32 %30, ptr %13, align 4, !tbaa !4
  br label %31

31:                                               ; preds = %23
  %32 = load ptr, ptr %12, align 8, !tbaa !101
  %33 = load ptr, ptr %10, align 8, !tbaa !67
  %34 = getelementptr inbounds nuw %struct._zval_struct, ptr %33, i32 0, i32 0
  store ptr %32, ptr %34, align 8, !tbaa !31
  %35 = load i32, ptr %13, align 4, !tbaa !4
  %36 = load ptr, ptr %10, align 8, !tbaa !67
  %37 = getelementptr inbounds nuw %struct._zval_struct, ptr %36, i32 0, i32 1
  store i32 %35, ptr %37, align 8, !tbaa !31
  br label %38

38:                                               ; preds = %31
  br label %39

39:                                               ; preds = %38
  %40 = load i32, ptr %13, align 4, !tbaa !4
  %41 = and i32 %40, 65280
  %42 = icmp ne i32 %41, 0
  br i1 %42, label %43, label %47

43:                                               ; preds = %39
  %44 = load ptr, ptr %12, align 8, !tbaa !101
  %45 = getelementptr inbounds nuw %struct._zend_refcounted, ptr %44, i32 0, i32 0
  %46 = call i32 @zend_gc_addref(ptr noundef %45)
  br label %47

47:                                               ; preds = %43, %39
  call void @llvm.lifetime.end.p0(i64 4, ptr %13) #14
  call void @llvm.lifetime.end.p0(i64 8, ptr %12) #14
  call void @llvm.lifetime.end.p0(i64 8, ptr %11) #14
  call void @llvm.lifetime.end.p0(i64 8, ptr %10) #14
  br label %48

48:                                               ; preds = %47
  br label %49

49:                                               ; preds = %48
  store ptr %7, ptr %5, align 8, !tbaa !67
  %50 = load ptr, ptr %5, align 8, !tbaa !67
  %51 = call zeroext i1 @zend_parse_arg_str_ex(ptr noundef %50, ptr noundef %8, i1 noundef zeroext false, i32 noundef 1, i1 noundef zeroext true)
  br i1 %51, label %54, label %52

52:                                               ; preds = %49
  %53 = load ptr, ptr %5, align 8, !tbaa !67
  call void @zend_wrong_parameter_type_error(i32 noundef 1, i32 noundef 4, ptr noundef %53)
  br label %65

54:                                               ; preds = %49
  br label %55

55:                                               ; preds = %54, %18
  %56 = load ptr, ptr %6, align 8, !tbaa !67
  %57 = call zeroext i1 @zend_parse_arg_bool_ex(ptr noundef %56, ptr noundef %9, ptr noundef null, i1 noundef zeroext false, i32 noundef 2, i1 noundef zeroext true)
  br i1 %57, label %60, label %58

58:                                               ; preds = %55
  %59 = load ptr, ptr %6, align 8, !tbaa !67
  call void @zend_wrong_parameter_type_error(i32 noundef 2, i32 noundef 2, ptr noundef %59)
  br label %65

60:                                               ; preds = %55
  %61 = load ptr, ptr %4, align 8, !tbaa !67
  %62 = load ptr, ptr %8, align 8, !tbaa !32
  %63 = load i8, ptr %9, align 1, !tbaa !70, !range !71, !noundef !72
  %64 = trunc i8 %63 to i1
  call void @_class_exists_impl(ptr noundef %61, ptr noundef %62, i1 noundef zeroext %64, i32 noundef 8, i32 noundef 3)
  br label %65

65:                                               ; preds = %60, %58, %52
  %66 = load ptr, ptr %5, align 8, !tbaa !67
  %67 = icmp eq ptr %66, %7
  %68 = xor i1 %67, true
  %69 = xor i1 %68, true
  %70 = zext i1 %69 to i32
  %71 = sext i32 %70 to i64
  %72 = call i64 @llvm.expect.i64(i64 %71, i64 0)
  %73 = icmp ne i64 %72, 0
  br i1 %73, label %74, label %76

74:                                               ; preds = %65
  %75 = load ptr, ptr %5, align 8, !tbaa !67
  call void @zval_ptr_dtor(ptr noundef %75)
  br label %76

76:                                               ; preds = %74, %65
  call void @llvm.lifetime.end.p0(i64 1, ptr %9) #14
  call void @llvm.lifetime.end.p0(i64 8, ptr %8) #14
  call void @llvm.lifetime.end.p0(i64 16, ptr %7) #14
  ret void
}