; Function Attrs: nounwind uwtable
define hidden void @zflf_class_exists_2(ptr noundef writeonly captures(none) %0, ptr noundef %1, ptr noundef %2) #0 {
  %4 = alloca %struct._zval_struct, align 8
  %5 = alloca ptr, align 8
  %6 = alloca i8, align 1
  call void @llvm.lifetime.start.p0(i64 16, ptr nonnull %4) #14
  call void @llvm.lifetime.start.p0(i64 8, ptr nonnull %5) #14
  call void @llvm.lifetime.start.p0(i64 1, ptr nonnull %6) #14
  %7 = getelementptr inbounds nuw i8, ptr %1, i64 8
  %8 = load i8, ptr %7, align 8, !tbaa !28
  %9 = icmp eq i8 %8, 6
  %10 = load ptr, ptr %1, align 8, !tbaa !28
  br i1 %9, label %.sink.split, label %11

11:                                               ; preds = %3
  %12 = load i32, ptr %7, align 8, !tbaa !28
  store ptr %10, ptr %4, align 8, !tbaa !28
  %13 = getelementptr inbounds nuw i8, ptr %4, i64 8
  store i32 %12, ptr %13, align 8, !tbaa !28
  %14 = and i32 %12, 65280
  %.not = icmp eq i32 %14, 0
  %15 = trunc i32 %12 to i8
  br i1 %.not, label %19, label %16

16:                                               ; preds = %11
  %17 = load i32, ptr %10, align 4, !tbaa !30
  %18 = add i32 %17, 1
  store i32 %18, ptr %10, align 4, !tbaa !30
  %.pre = load i8, ptr %13, align 8, !tbaa !28
  br label %19

19:                                               ; preds = %16, %11
  %20 = phi i8 [ %.pre, %16 ], [ %15, %11 ]
  %21 = icmp eq i8 %20, 6
  br i1 %21, label %zend_parse_arg_str_ex.exit.thread, label %zend_parse_arg_str_ex.exit, !prof !69

zend_parse_arg_str_ex.exit.thread:                ; preds = %19
  %22 = load ptr, ptr %4, align 8, !tbaa !28
  br label %.sink.split

zend_parse_arg_str_ex.exit:                       ; preds = %19
  %23 = call zeroext i1 @zend_flf_parse_arg_str_slow(ptr noundef nonnull %4, ptr noundef nonnull %5, i32 noundef 1) #14
  br i1 %23, label %24, label %.thread

.thread:                                          ; preds = %zend_parse_arg_str_ex.exit
  call void @zend_wrong_parameter_type_error(i32 noundef 1, i32 noundef 4, ptr noundef nonnull %4) #14
  br label %35

.sink.split:                                      ; preds = %3, %zend_parse_arg_str_ex.exit.thread
  %.sink = phi ptr [ %22, %zend_parse_arg_str_ex.exit.thread ], [ %10, %3 ]
  %.0.ph = phi ptr [ %4, %zend_parse_arg_str_ex.exit.thread ], [ %1, %3 ]
  store ptr %.sink, ptr %5, align 8, !tbaa !60
  br label %24

24:                                               ; preds = %.sink.split, %zend_parse_arg_str_ex.exit
  %.0 = phi ptr [ %4, %zend_parse_arg_str_ex.exit ], [ %.0.ph, %.sink.split ]
  %25 = getelementptr inbounds nuw i8, ptr %2, i64 8
  %26 = load i8, ptr %25, align 8, !tbaa !28
  switch i8 %26, label %zend_parse_arg_bool_ex.exit [
    i8 3, label %zend_parse_arg_bool_ex.exit.thread
    i8 2, label %zend_parse_arg_bool_ex.exit.thread.fold.split
  ], !prof !63

zend_parse_arg_bool_ex.exit.thread.fold.split:    ; preds = %24
  br label %zend_parse_arg_bool_ex.exit.thread

zend_parse_arg_bool_ex.exit.thread:               ; preds = %24, %zend_parse_arg_bool_ex.exit.thread.fold.split
  %storemerge.i = phi i8 [ 1, %24 ], [ 0, %zend_parse_arg_bool_ex.exit.thread.fold.split ]
  store i8 %storemerge.i, ptr %6, align 1, !tbaa !110
  br label %29

zend_parse_arg_bool_ex.exit:                      ; preds = %24
  %27 = call zeroext i1 @zend_flf_parse_arg_bool_slow(ptr noundef nonnull %2, ptr noundef nonnull %6, i32 noundef 2) #14
  br i1 %27, label %zend_parse_arg_bool_ex.exit._crit_edge, label %28

zend_parse_arg_bool_ex.exit._crit_edge:           ; preds = %zend_parse_arg_bool_ex.exit
  %.pre22 = load i8, ptr %6, align 1, !tbaa !110, !range !73
  br label %29

28:                                               ; preds = %zend_parse_arg_bool_ex.exit
  call void @zend_wrong_parameter_type_error(i32 noundef 2, i32 noundef 2, ptr noundef nonnull %2) #14
  br label %33

29:                                               ; preds = %zend_parse_arg_bool_ex.exit._crit_edge, %zend_parse_arg_bool_ex.exit.thread
  %30 = phi i8 [ %.pre22, %zend_parse_arg_bool_ex.exit._crit_edge ], [ %storemerge.i, %zend_parse_arg_bool_ex.exit.thread ]
  %31 = load ptr, ptr %5, align 8, !tbaa !60
  %32 = trunc nuw i8 %30 to i1
  call fastcc void @_class_exists_impl(ptr noundef %0, ptr noundef %31, i1 noundef zeroext %32, i32 noundef 8, i32 noundef 3)
  br label %33

33:                                               ; preds = %29, %28
  %34 = icmp eq ptr %.0, %4
  br i1 %34, label %35, label %36, !prof !64

35:                                               ; preds = %.thread, %33
  %.121 = phi ptr [ %4, %.thread ], [ %.0, %33 ]
  call void @zval_ptr_dtor(ptr noundef nonnull %.121) #14
  br label %36

36:                                               ; preds = %35, %33
  call void @llvm.lifetime.end.p0(i64 1, ptr nonnull %6) #14
  call void @llvm.lifetime.end.p0(i64 8, ptr nonnull %5) #14
  call void @llvm.lifetime.end.p0(i64 16, ptr nonnull %4) #14
  ret void
}